target datalayout = "e-m:e-p270:32:32-p271:32:32-p272:64:64-i64:64-i128:128-f80:128-n8:16:32:64-S128"
target triple = "x86_64-pc-linux-gnu"

%struct.AVRational = type { i32, i32 }

@.str = private unnamed_addr constant [30 x i8] c"Assertion %s failed at %s:%d\0A\00", align 1
@.str.1 = private unnamed_addr constant [41 x i8] c"in_ts != ((int64_t)0x8000000000000000UL)\00", align 1
@.str.2 = private unnamed_addr constant [24 x i8] c"libavutil/mathematics.c\00", align 1
@.str.3 = private unnamed_addr constant [14 x i8] c"duration >= 0\00", align 1

; Function Attrs: alwaysinline nounwind willreturn memory(none) uwtable
define internal i64 @av_clip64_c(i64 noundef %0, i64 noundef %1, i64 noundef %2) #2 {
  %4 = alloca i64, align 8
  %5 = alloca i64, align 8
  %6 = alloca i64, align 8
  %7 = alloca i64, align 8
  store i64 %0, ptr %5, align 8, !tbaa !4
  store i64 %1, ptr %6, align 8, !tbaa !4
  store i64 %2, ptr %7, align 8, !tbaa !4
  %8 = load i64, ptr %5, align 8, !tbaa !4
  %9 = load i64, ptr %6, align 8, !tbaa !4
  %10 = icmp slt i64 %8, %9
  br i1 %10, label %11, label %13

11:                                               ; preds = %3
  %12 = load i64, ptr %6, align 8, !tbaa !4
  store i64 %12, ptr %4, align 8
  br label %21

13:                                               ; preds = %3
  %14 = load i64, ptr %5, align 8, !tbaa !4
  %15 = load i64, ptr %7, align 8, !tbaa !4
  %16 = icmp sgt i64 %14, %15
  br i1 %16, label %17, label %19

17:                                               ; preds = %13
  %18 = load i64, ptr %7, align 8, !tbaa !4
  store i64 %18, ptr %4, align 8
  br label %21

19:                                               ; preds = %13
  %20 = load i64, ptr %5, align 8, !tbaa !4
  store i64 %20, ptr %4, align 8
  br label %21

21:                                               ; preds = %19, %17, %11
  %22 = load i64, ptr %4, align 8
  ret i64 %22
}

; Function Attrs: nounwind willreturn memory(none) uwtable
define i64 @av_rescale_q_rnd(i64 noundef %0, i64 %1, i64 %2, i32 noundef %3) #0 {
  %5 = alloca %struct.AVRational, align 4
  %6 = alloca %struct.AVRational, align 4
  %7 = alloca i64, align 8
  %8 = alloca i32, align 4
  %9 = alloca i64, align 8
  %10 = alloca i64, align 8
  store i64 %1, ptr %5, align 4
  store i64 %2, ptr %6, align 4
  store i64 %0, ptr %7, align 8, !tbaa !4
  store i32 %3, ptr %8, align 4, !tbaa !8
  call void @llvm.lifetime.start.p0(i64 8, ptr %9) #11
  %11 = getelementptr inbounds nuw %struct.AVRational, ptr %5, i32 0, i32 0
  %12 = load i32, ptr %11, align 4, !tbaa !16
  %13 = sext i32 %12 to i64
  %14 = getelementptr inbounds nuw %struct.AVRational, ptr %6, i32 0, i32 1
  %15 = load i32, ptr %14, align 4, !tbaa !18
  %16 = sext i32 %15 to i64
  %17 = mul nsw i64 %13, %16
  store i64 %17, ptr %9, align 8, !tbaa !4
  call void @llvm.lifetime.start.p0(i64 8, ptr %10) #11
  %18 = getelementptr inbounds nuw %struct.AVRational, ptr %6, i32 0, i32 0
  %19 = load i32, ptr %18, align 4, !tbaa !16
  %20 = sext i32 %19 to i64
  %21 = getelementptr inbounds nuw %struct.AVRational, ptr %5, i32 0, i32 1
  %22 = load i32, ptr %21, align 4, !tbaa !18
  %23 = sext i32 %22 to i64
  %24 = mul nsw i64 %20, %23
  store i64 %24, ptr %10, align 8, !tbaa !4
  %25 = load i64, ptr %7, align 8, !tbaa !4
  %26 = load i64, ptr %9, align 8, !tbaa !4
  %27 = load i64, ptr %10, align 8, !tbaa !4
  %28 = load i32, ptr %8, align 4, !tbaa !8
  %29 = call i64 @av_rescale_rnd(i64 noundef %25, i64 noundef %26, i64 noundef %27, i32 noundef %28) #12
  call void @llvm.lifetime.end.p0(i64 8, ptr %10) #11
  call void @llvm.lifetime.end.p0(i64 8, ptr %9) #11
  ret i64 %29
}

; Function Attrs: nounwind willreturn memory(none) uwtable
define i64 @av_rescale_q(i64 noundef %0, i64 %1, i64 %2) #0 {
  %4 = alloca %struct.AVRational, align 4
  %5 = alloca %struct.AVRational, align 4
  %6 = alloca i64, align 8
  store i64 %1, ptr %4, align 4
  store i64 %2, ptr %5, align 4
  store i64 %0, ptr %6, align 8, !tbaa !4
  %7 = load i64, ptr %6, align 8, !tbaa !4
  %8 = load i64, ptr %4, align 4
  %9 = load i64, ptr %5, align 4
  %10 = call i64 @av_rescale_q_rnd(i64 noundef %7, i64 %8, i64 %9, i32 noundef 5) #12
  ret i64 %10
}

; Function Attrs: nounwind uwtable
define i64 @av_rescale_delta(i64 %0, i64 noundef %1, i64 %2, i32 noundef %3, ptr noundef %4, i64 %5) #4 {
  %7 = alloca i64, align 8
  %8 = alloca %struct.AVRational, align 4
  %9 = alloca %struct.AVRational, align 4
  %10 = alloca %struct.AVRational, align 4
  %11 = alloca i64, align 8
  %12 = alloca i32, align 4
  %13 = alloca ptr, align 8
  %14 = alloca i64, align 8
  %15 = alloca i64, align 8
  %16 = alloca i64, align 8
  %17 = alloca i32, align 4
  store i64 %0, ptr %8, align 4
  store i64 %2, ptr %9, align 4
  store i64 %5, ptr %10, align 4
  store i64 %1, ptr %11, align 8, !tbaa !4
  store i32 %3, ptr %12, align 4, !tbaa !8
  store ptr %4, ptr %13, align 8, !tbaa !19
  call void @llvm.lifetime.start.p0(i64 8, ptr %14) #11
  call void @llvm.lifetime.start.p0(i64 8, ptr %15) #11
  call void @llvm.lifetime.start.p0(i64 8, ptr %16) #11
  br label %18

18:                                               ; preds = %6
  %19 = load i64, ptr %11, align 8, !tbaa !4
  %20 = icmp ne i64 %19, -9223372036854775808
  br i1 %20, label %22, label %21

21:                                               ; preds = %18
  call void (ptr, i32, ptr, ...) @av_log(ptr noundef null, i32 noundef 0, ptr noundef @.str, ptr noundef @.str.1, ptr noundef @.str.2, i32 noundef 171)
  call void @abort() #13
  unreachable

22:                                               ; preds = %18
  br label %23

23:                                               ; preds = %22
  br label %24

24:                                               ; preds = %23
  br label %25

25:                                               ; preds = %24
  %26 = load i32, ptr %12, align 4, !tbaa !8
  %27 = icmp sge i32 %26, 0
  br i1 %27, label %29, label %28

28:                                               ; preds = %25
  call void (ptr, i32, ptr, ...) @av_log(ptr noundef null, i32 noundef 0, ptr noundef @.str, ptr noundef @.str.3, ptr noundef @.str.2, i32 noundef 172)
  call void @abort() #13
  unreachable

29:                                               ; preds = %25
  br label %30

30:                                               ; preds = %29
  br label %31

31:                                               ; preds = %30
  %32 = load ptr, ptr %13, align 8, !tbaa !19
  %33 = load i64, ptr %32, align 8, !tbaa !4
  %34 = icmp eq i64 %33, -9223372036854775808
  br i1 %34, label %54, label %35

35:                                               ; preds = %31
  %36 = load i32, ptr %12, align 4, !tbaa !8
  %37 = icmp ne i32 %36, 0
  br i1 %37, label %38, label %54

38:                                               ; preds = %35
  %39 = getelementptr inbounds nuw %struct.AVRational, ptr %8, i32 0, i32 0
  %40 = load i32, ptr %39, align 4, !tbaa !16
  %41 = sext i32 %40 to i64
  %42 = getelementptr inbounds nuw %struct.AVRational, ptr %10, i32 0, i32 1
  %43 = load i32, ptr %42, align 4, !tbaa !18
  %44 = sext i32 %43 to i64
  %45 = mul nsw i64 %41, %44
  %46 = getelementptr inbounds nuw %struct.AVRational, ptr %10, i32 0, i32 0
  %47 = load i32, ptr %46, align 4, !tbaa !16
  %48 = sext i32 %47 to i64
  %49 = getelementptr inbounds nuw %struct.AVRational, ptr %8, i32 0, i32 1
  %50 = load i32, ptr %49, align 4, !tbaa !18
  %51 = sext i32 %50 to i64
  %52 = mul nsw i64 %48, %51
  %53 = icmp sle i64 %45, %52
  br i1 %53, label %54, label %68

54:                                               ; preds = %38, %35, %31
  br label %55

55:                                               ; preds = %99, %54
  %56 = load i64, ptr %11, align 8, !tbaa !4
  %57 = load i64, ptr %8, align 4
  %58 = load i64, ptr %9, align 4
  %59 = call i64 @av_rescale_q(i64 noundef %56, i64 %57, i64 %58) #12
  %60 = load i32, ptr %12, align 4, !tbaa !8
  %61 = sext i32 %60 to i64
  %62 = add nsw i64 %59, %61
  %63 = load ptr, ptr %13, align 8, !tbaa !19
  store i64 %62, ptr %63, align 8, !tbaa !4
  %64 = load i64, ptr %11, align 8, !tbaa !4
  %65 = load i64, ptr %8, align 4
  %66 = load i64, ptr %10, align 4
  %67 = call i64 @av_rescale_q(i64 noundef %64, i64 %65, i64 %66) #12
  store i64 %67, ptr %7, align 8
  store i32 1, ptr %17, align 4
  br label %115

68:                                               ; preds = %38
  %69 = load i64, ptr %11, align 8, !tbaa !4
  %70 = mul nsw i64 2, %69
  %71 = sub nsw i64 %70, 1
  %72 = load i64, ptr %8, align 4
  %73 = load i64, ptr %9, align 4
  %74 = call i64 @av_rescale_q_rnd(i64 noundef %71, i64 %72, i64 %73, i32 noundef 2) #12
  %75 = ashr i64 %74, 1
  store i64 %75, ptr %14, align 8, !tbaa !4
  %76 = load i64, ptr %11, align 8, !tbaa !4
  %77 = mul nsw i64 2, %76
  %78 = add nsw i64 %77, 1
  %79 = load i64, ptr %8, align 4
  %80 = load i64, ptr %9, align 4
  %81 = call i64 @av_rescale_q_rnd(i64 noundef %78, i64 %79, i64 %80, i32 noundef 3) #12
  %82 = add nsw i64 %81, 1
  %83 = ashr i64 %82, 1
  store i64 %83, ptr %15, align 8, !tbaa !4
  %84 = load ptr, ptr %13, align 8, !tbaa !19
  %85 = load i64, ptr %84, align 8, !tbaa !4
  %86 = load i64, ptr %14, align 8, !tbaa !4
  %87 = mul nsw i64 2, %86
  %88 = load i64, ptr %15, align 8, !tbaa !4
  %89 = sub nsw i64 %87, %88
  %90 = icmp slt i64 %85, %89
  br i1 %90, label %99, label %91

91:                                               ; preds = %68
  %92 = load ptr, ptr %13, align 8, !tbaa !19
  %93 = load i64, ptr %92, align 8, !tbaa !4
  %94 = load i64, ptr %15, align 8, !tbaa !4
  %95 = mul nsw i64 2, %94
  %96 = load i64, ptr %14, align 8, !tbaa !4
  %97 = sub nsw i64 %95, %96
  %98 = icmp sgt i64 %93, %97
  br i1 %98, label %99, label %100

99:                                               ; preds = %91, %68
  br label %55

100:                                              ; preds = %91
  %101 = load ptr, ptr %13, align 8, !tbaa !19
  %102 = load i64, ptr %101, align 8, !tbaa !4
  %103 = load i64, ptr %14, align 8, !tbaa !4
  %104 = load i64, ptr %15, align 8, !tbaa !4
  %105 = call i64 @av_clip64_c(i64 noundef %102, i64 noundef %103, i64 noundef %104) #12
  store i64 %105, ptr %16, align 8, !tbaa !4
  %106 = load i64, ptr %16, align 8, !tbaa !4
  %107 = load i32, ptr %12, align 4, !tbaa !8
  %108 = sext i32 %107 to i64
  %109 = add nsw i64 %106, %108
  %110 = load ptr, ptr %13, align 8, !tbaa !19
  store i64 %109, ptr %110, align 8, !tbaa !4
  %111 = load i64, ptr %16, align 8, !tbaa !4
  %112 = load i64, ptr %9, align 4
  %113 = load i64, ptr %10, align 4
  %114 = call i64 @av_rescale_q(i64 noundef %111, i64 %112, i64 %113) #12
  store i64 %114, ptr %7, align 8
  store i32 1, ptr %17, align 4
  br label %115

115:                                              ; preds = %100, %55
  call void @llvm.lifetime.end.p0(i64 8, ptr %16) #11
  call void @llvm.lifetime.end.p0(i64 8, ptr %15) #11
  call void @llvm.lifetime.end.p0(i64 8, ptr %14) #11
  %116 = load i64, ptr %7, align 8
  ret i64 %116
}