; Function Attrs: nounwind uwtable
define i64 @av_rescale_delta(i64 %0, i64 noundef %1, i64 %2, i32 noundef %3, ptr noundef captures(none) %4, i64 %5) local_unnamed_addr #4 {
  %.not = icmp eq i64 %1, -9223372036854775808
  br i1 %.not, label %7, label %8

7:                                                ; preds = %6
  tail call void (ptr, i32, ptr, ...) @av_log(ptr noundef null, i32 noundef 0, ptr noundef nonnull @.str, ptr noundef nonnull @.str.1, ptr noundef nonnull @.str.2, i32 noundef 171) #12
  tail call void @abort() #13
  unreachable

8:                                                ; preds = %6
  %9 = icmp sgt i32 %3, -1
  br i1 %9, label %11, label %10

10:                                               ; preds = %8
  tail call void (ptr, i32, ptr, ...) @av_log(ptr noundef null, i32 noundef 0, ptr noundef nonnull @.str, ptr noundef nonnull @.str.3, ptr noundef nonnull @.str.2, i32 noundef 172) #12
  tail call void @abort() #13
  unreachable

11:                                               ; preds = %8
  %12 = load i64, ptr %4, align 8, !tbaa !7
  %13 = icmp ne i64 %12, -9223372036854775808
  %14 = icmp ne i32 %3, 0
  %or.cond = and i1 %14, %13
  %sext = shl i64 %0, 32
  %15 = ashr exact i64 %sext, 32
  br i1 %or.cond, label %16, label %._crit_edge

._crit_edge:                                      ; preds = %11
  %.pre81 = ashr i64 %0, 32
  %.pre83 = ashr i64 %5, 32
  %.pre85 = mul nsw i64 %.pre83, %15
  %.pre87 = shl i64 %5, 32
  %.pre88 = ashr exact i64 %.pre87, 32
  %.pre90 = mul nsw i64 %.pre88, %.pre81
  br label %22

16:                                               ; preds = %11
  %17 = ashr i64 %5, 32
  %18 = mul nsw i64 %17, %15
  %sext71 = shl i64 %5, 32
  %19 = ashr exact i64 %sext71, 32
  %20 = ashr i64 %0, 32
  %21 = mul nsw i64 %19, %20
  %.not73 = icmp sgt i64 %18, %21
  br i1 %.not73, label %31, label %22

22:                                               ; preds = %._crit_edge, %av_rescale_rnd.exit, %101, %16
  %.pre-phi91 = phi i64 [ %.pre90, %._crit_edge ], [ %21, %av_rescale_rnd.exit ], [ %21, %101 ], [ %21, %16 ]
  %.pre-phi86 = phi i64 [ %.pre85, %._crit_edge ], [ %18, %av_rescale_rnd.exit ], [ %18, %101 ], [ %18, %16 ]
  %.pre-phi82 = phi i64 [ %.pre81, %._crit_edge ], [ %20, %av_rescale_rnd.exit ], [ %20, %101 ], [ %20, %16 ]
  %23 = ashr i64 %2, 32
  %24 = mul nsw i64 %23, %15
  %sext7.i.i = shl i64 %2, 32
  %25 = ashr exact i64 %sext7.i.i, 32
  %26 = mul nsw i64 %25, %.pre-phi82
  %27 = tail call i64 @av_rescale_rnd(i64 noundef %1, i64 noundef %24, i64 noundef %26, i32 noundef 5) #10
  %28 = zext nneg i32 %3 to i64
  %29 = add nsw i64 %27, %28
  store i64 %29, ptr %4, align 8, !tbaa !7
  %30 = tail call i64 @av_rescale_rnd(i64 noundef %1, i64 noundef %.pre-phi86, i64 noundef %.pre-phi91, i32 noundef 5) #10
  br label %112

31:                                               ; preds = %16
  %32 = shl nsw i64 %1, 1
  %33 = add nsw i64 %32, -1
  %34 = ashr i64 %2, 32
  %35 = mul nsw i64 %34, %15
  %sext7.i = shl i64 %2, 32
  %36 = ashr exact i64 %sext7.i, 32
  %37 = mul nsw i64 %36, %20
  %38 = icmp slt i64 %37, 1
  %39 = icmp slt i64 %35, 0
  %or.cond.i = or i1 %39, %38
  br i1 %or.cond.i, label %av_rescale_rnd.exit, label %40

40:                                               ; preds = %31
  %41 = icmp slt i64 %1, 1
  br i1 %41, label %42, label %47

42:                                               ; preds = %40
  %43 = tail call i64 @llvm.umax.i64(i64 %33, i64 -9223372036854775807)
  %44 = sub nsw i64 0, %43
  %45 = tail call i64 @av_rescale_rnd(i64 noundef %44, i64 noundef %35, i64 noundef %37, i32 noundef 3) #11
  %46 = sub i64 0, %45
  br label %av_rescale_rnd.exit

47:                                               ; preds = %40
  %48 = or i64 %37, %35
  %or.cond5.i = icmp samesign ult i64 %48, 2147483648
  br i1 %or.cond5.i, label %49, label %68

49:                                               ; preds = %47
  %50 = icmp ult i64 %32, 2147483649
  br i1 %50, label %51, label %54

51:                                               ; preds = %49
  %52 = mul nuw nsw i64 %35, %33
  %53 = udiv i64 %52, %37
  br label %av_rescale_rnd.exit

54:                                               ; preds = %49
  %55 = udiv i64 %33, %37
  %56 = urem i64 %33, %37
  %57 = mul nuw nsw i64 %56, %35
  %58 = udiv i64 %57, %37
  %59 = icmp samesign ugt i64 %55, 2147483646
  %60 = icmp ne i64 %35, 0
  %or.cond7.i = and i1 %60, %59
  br i1 %or.cond7.i, label %61, label %65

61:                                               ; preds = %54
  %62 = sub nuw nsw i64 9223372036854775807, %58
  %63 = udiv i64 %62, %35
  %64 = icmp samesign ugt i64 %55, %63
  br i1 %64, label %av_rescale_rnd.exit, label %65

65:                                               ; preds = %61, %54
  %66 = mul nuw nsw i64 %55, %35
  %67 = add nuw nsw i64 %58, %66
  br label %av_rescale_rnd.exit

68:                                               ; preds = %47
  %69 = and i64 %33, 4294967295
  %70 = lshr i64 %33, 32
  %71 = and i64 %35, 4294967295
  %72 = lshr i64 %35, 32
  %73 = mul nuw nsw i64 %72, %69
  %74 = mul nuw nsw i64 %71, %70
  %75 = add nuw i64 %73, %74
  %76 = shl i64 %75, 32
  %77 = mul i64 %35, %33
  %78 = mul nuw nsw i64 %72, %70
  %79 = lshr i64 %75, 32
  %80 = add nuw nsw i64 %79, %78
  %81 = icmp ult i64 %77, %76
  %82 = zext i1 %81 to i64
  %83 = add nuw nsw i64 %80, %82
  br label %84

84:                                               ; preds = %84, %68
  %indvars.iv.i = phi i64 [ 63, %68 ], [ %indvars.iv.next.i, %84 ]
  %.088107.i = phi i64 [ %75, %68 ], [ %.189.i, %84 ]
  %.092106.i = phi i64 [ %83, %68 ], [ %.193.i, %84 ]
  %85 = lshr i64 %77, %indvars.iv.i
  %86 = and i64 %85, 1
  %reass.add.i = shl i64 %.092106.i, 1
  %87 = or disjoint i64 %reass.add.i, %86
  %88 = shl i64 %.088107.i, 1
  %.not104.i = icmp ule i64 %37, %87
  %89 = select i1 %.not104.i, i64 %37, i64 0
  %.193.i = sub nuw i64 %87, %89
  %90 = zext i1 %.not104.i to i64
  %.189.i = or disjoint i64 %88, %90
  %indvars.iv.next.i = add nsw i64 %indvars.iv.i, -1
  %.not110.i = icmp eq i64 %indvars.iv.i, 0
  br i1 %.not110.i, label %91, label %84, !llvm.loop !6

91:                                               ; preds = %84
  %92 = icmp slt i64 %88, 0
  %..088.i = select i1 %92, i64 -9223372036854775808, i64 %.189.i
  br label %av_rescale_rnd.exit

av_rescale_rnd.exit:                              ; preds = %31, %42, %51, %61, %65, %91
  %common.ret.op.i = phi i64 [ %46, %42 ], [ %53, %51 ], [ %..088.i, %91 ], [ -9223372036854775808, %31 ], [ %67, %65 ], [ -9223372036854775808, %61 ]
  %93 = ashr i64 %common.ret.op.i, 1
  %94 = or disjoint i64 %32, 1
  %95 = tail call i64 @av_rescale_rnd(i64 noundef %94, i64 noundef %35, i64 noundef %37, i32 noundef 3) #10
  %96 = add nsw i64 %95, 1
  %97 = ashr i64 %96, 1
  %98 = and i64 %common.ret.op.i, -2
  %99 = sub nsw i64 %98, %97
  %100 = icmp slt i64 %12, %99
  br i1 %100, label %22, label %101

101:                                              ; preds = %av_rescale_rnd.exit
  %102 = and i64 %96, -2
  %103 = sub nsw i64 %102, %93
  %104 = icmp sgt i64 %12, %103
  br i1 %104, label %22, label %105

105:                                              ; preds = %101
  %106 = icmp slt i64 %12, %93
  %..i = tail call i64 @llvm.smin.i64(i64 %12, i64 %97)
  %.0.i = select i1 %106, i64 %93, i64 %..i
  %107 = zext nneg i32 %3 to i64
  %108 = add nsw i64 %.0.i, %107
  store i64 %108, ptr %4, align 8, !tbaa !7
  %109 = mul nsw i64 %17, %36
  %110 = mul nsw i64 %19, %34
  %111 = tail call i64 @av_rescale_rnd(i64 noundef %.0.i, i64 noundef %109, i64 noundef %110, i32 noundef 5) #10
  br label %112

112:                                              ; preds = %105, %22
  %.0 = phi i64 [ %30, %22 ], [ %111, %105 ]
  ret i64 %.0
}